; Function Attrs: nounwind uwtable
define internal void @ff_tx_dstI_int32_c(ptr noundef readonly captures(none) %0, ptr noundef %1, ptr noundef readonly captures(none) %2, i64 noundef %3) #3 {
  %5 = load i32, ptr %0, align 8, !tbaa !16
  %6 = add i32 %5, 1
  %7 = getelementptr inbounds nuw i8, ptr %0, i64 24
  %8 = load ptr, ptr %7, align 8, !tbaa !54
  %9 = lshr i64 %3, 2
  store i32 0, ptr %8, align 4, !tbaa !10
  %.not25 = icmp slt i32 %5, 1
  br i1 %.not25, label %._crit_edge, label %.lr.ph

.lr.ph:                                           ; preds = %4
  %10 = shl nuw nsw i32 %6, 1
  %11 = zext nneg i32 %10 to i64
  %wide.trip.count = zext i32 %6 to i64
  br label %18

._crit_edge:                                      ; preds = %18, %4
  %12 = sext i32 %6 to i64
  %13 = getelementptr inbounds i32, ptr %8, i64 %12
  store i32 0, ptr %13, align 4, !tbaa !10
  %14 = getelementptr inbounds nuw i8, ptr %0, i64 40
  %15 = load ptr, ptr %14, align 8, !tbaa !4
  %16 = getelementptr inbounds nuw i8, ptr %0, i64 32
  %17 = load ptr, ptr %16, align 8, !tbaa !55
  tail call void %15(ptr noundef %17, ptr noundef %1, ptr noundef nonnull %8, i64 noundef 4) #16
  ret void

18:                                               ; preds = %.lr.ph, %18
  %indvars.iv = phi i64 [ 1, %.lr.ph ], [ %indvars.iv.next, %18 ]
  %19 = add nsw i64 %indvars.iv, -1
  %20 = mul nuw nsw i64 %9, %19
  %21 = getelementptr inbounds i32, ptr %2, i64 %20
  %22 = load i32, ptr %21, align 4, !tbaa !10
  %23 = sub nsw i32 0, %22
  %24 = getelementptr inbounds nuw i32, ptr %8, i64 %indvars.iv
  store i32 %23, ptr %24, align 4, !tbaa !10
  %25 = sub nsw i64 %11, %indvars.iv
  %26 = getelementptr inbounds i32, ptr %8, i64 %25
  store i32 %22, ptr %26, align 4, !tbaa !10
  %indvars.iv.next = add nuw nsw i64 %indvars.iv, 1
  %exitcond.not = icmp eq i64 %indvars.iv.next, %wide.trip.count
  br i1 %exitcond.not, label %._crit_edge, label %18, !llvm.loop !160
}